target datalayout = "e-m:e-p270:32:32-p271:32:32-p272:64:64-i64:64-i128:128-f80:128-n8:16:32:64-S128"
target triple = "x86_64-pc-linux-gnu"

%struct.ARKodeARKStepMemRec = type { ptr, ptr, i32, i32, i32, i32, i32, i32, ptr, ptr, ptr, ptr, ptr, ptr, i32, i32, i32, i32, ptr, ptr, ptr, ptr, i32, ptr, double, double, double, double, i32, double, double, double, double, double, double, i32, i64, i32, i32, i32, ptr, ptr, ptr, ptr, ptr, ptr, i32, ptr, ptr, ptr, ptr, ptr, ptr, i32, i32, i64, i64, i64, i64, i64, ptr, ptr, i32, i32, i32, double, double, ptr, i32, ptr, ptr }

@__func__.arkStep_NlsConvTest = private unnamed_addr constant [20 x i8] c"arkStep_NlsConvTest\00", align 1

; Function Attrs: nounwind uwtable
define i32 @arkStep_NlsConvTest(ptr noundef %0, ptr noundef %1, ptr noundef %2, double noundef %3, ptr noundef %4, ptr noundef %5) #0 {
  %7 = alloca i32, align 4
  %8 = alloca ptr, align 8
  %9 = alloca ptr, align 8
  %10 = alloca ptr, align 8
  %11 = alloca double, align 8
  %12 = alloca ptr, align 8
  %13 = alloca ptr, align 8
  %14 = alloca ptr, align 8
  %15 = alloca ptr, align 8
  %16 = alloca double, align 8
  %17 = alloca double, align 8
  %18 = alloca i32, align 4
  %19 = alloca i32, align 4
  %20 = alloca i32, align 4
  store ptr %0, ptr %8, align 8, !tbaa !8
  store ptr %1, ptr %9, align 8, !tbaa !34
  store ptr %2, ptr %10, align 8, !tbaa !34
  store double %3, ptr %11, align 8, !tbaa !35
  store ptr %4, ptr %12, align 8, !tbaa !34
  store ptr %5, ptr %13, align 8, !tbaa !36
  call void @llvm.lifetime.start.p0(i64 8, ptr %14) #4
  call void @llvm.lifetime.start.p0(i64 8, ptr %15) #4
  call void @llvm.lifetime.start.p0(i64 8, ptr %16) #4
  call void @llvm.lifetime.start.p0(i64 8, ptr %17) #4
  call void @llvm.lifetime.start.p0(i64 4, ptr %18) #4
  call void @llvm.lifetime.start.p0(i64 4, ptr %19) #4
  %21 = load ptr, ptr %13, align 8, !tbaa !36
  %22 = call i32 @arkStep_AccessARKODEStepMem(ptr noundef %21, ptr noundef @__func__.arkStep_NlsConvTest, ptr noundef %14, ptr noundef %15)
  store i32 %22, ptr %19, align 4, !tbaa !10
  %23 = load i32, ptr %19, align 4, !tbaa !10
  %24 = icmp ne i32 %23, 0
  br i1 %24, label %25, label %27

25:                                               ; preds = %6
  %26 = load i32, ptr %19, align 4, !tbaa !10
  store i32 %26, ptr %7, align 4
  store i32 1, ptr %20, align 4
  br label %114

27:                                               ; preds = %6
  %28 = load ptr, ptr %15, align 8, !tbaa !20
  %29 = getelementptr inbounds nuw %struct.ARKodeARKStepMemRec, ptr %28, i32 0, i32 3
  %30 = load i32, ptr %29, align 4, !tbaa !37
  %31 = icmp ne i32 %30, 0
  br i1 %31, label %32, label %33

32:                                               ; preds = %27
  store i32 0, ptr %7, align 4
  store i32 1, ptr %20, align 4
  br label %114

33:                                               ; preds = %27
  %34 = load ptr, ptr %10, align 8, !tbaa !34
  %35 = load ptr, ptr %12, align 8, !tbaa !34
  %36 = call double @N_VWrmsNorm(ptr noundef %34, ptr noundef %35)
  store double %36, ptr %16, align 8, !tbaa !35
  %37 = load ptr, ptr %8, align 8, !tbaa !8
  %38 = call i32 @SUNNonlinSolGetCurIter(ptr noundef %37, ptr noundef %18)
  store i32 %38, ptr %19, align 4, !tbaa !10
  %39 = load i32, ptr %19, align 4, !tbaa !10
  %40 = icmp ne i32 %39, 0
  br i1 %40, label %41, label %42

41:                                               ; preds = %33
  store i32 -21, ptr %7, align 4
  store i32 1, ptr %20, align 4
  br label %114

42:                                               ; preds = %33
  %43 = load i32, ptr %18, align 4, !tbaa !10
  %44 = icmp sgt i32 %43, 0
  br i1 %44, label %45, label %77

45:                                               ; preds = %42
  %46 = load ptr, ptr %15, align 8, !tbaa !20
  %47 = getelementptr inbounds nuw %struct.ARKodeARKStepMemRec, ptr %46, i32 0, i32 29
  %48 = load double, ptr %47, align 8, !tbaa !38
  %49 = load ptr, ptr %15, align 8, !tbaa !20
  %50 = getelementptr inbounds nuw %struct.ARKodeARKStepMemRec, ptr %49, i32 0, i32 31
  %51 = load double, ptr %50, align 8, !tbaa !39
  %52 = fmul double %48, %51
  %53 = load double, ptr %16, align 8, !tbaa !35
  %54 = load ptr, ptr %15, align 8, !tbaa !20
  %55 = getelementptr inbounds nuw %struct.ARKodeARKStepMemRec, ptr %54, i32 0, i32 32
  %56 = load double, ptr %55, align 8, !tbaa !40
  %57 = fdiv double %53, %56
  %58 = fcmp ogt double %52, %57
  br i1 %58, label %59, label %67

59:                                               ; preds = %45
  %60 = load ptr, ptr %15, align 8, !tbaa !20
  %61 = getelementptr inbounds nuw %struct.ARKodeARKStepMemRec, ptr %60, i32 0, i32 29
  %62 = load double, ptr %61, align 8, !tbaa !38
  %63 = load ptr, ptr %15, align 8, !tbaa !20
  %64 = getelementptr inbounds nuw %struct.ARKodeARKStepMemRec, ptr %63, i32 0, i32 31
  %65 = load double, ptr %64, align 8, !tbaa !39
  %66 = fmul double %62, %65
  br label %73

67:                                               ; preds = %45
  %68 = load double, ptr %16, align 8, !tbaa !35
  %69 = load ptr, ptr %15, align 8, !tbaa !20
  %70 = getelementptr inbounds nuw %struct.ARKodeARKStepMemRec, ptr %69, i32 0, i32 32
  %71 = load double, ptr %70, align 8, !tbaa !40
  %72 = fdiv double %68, %71
  br label %73

73:                                               ; preds = %67, %59
  %74 = phi double [ %66, %59 ], [ %72, %67 ]
  %75 = load ptr, ptr %15, align 8, !tbaa !20
  %76 = getelementptr inbounds nuw %struct.ARKodeARKStepMemRec, ptr %75, i32 0, i32 31
  store double %74, ptr %76, align 8, !tbaa !39
  br label %77

77:                                               ; preds = %73, %42
  %78 = load ptr, ptr %15, align 8, !tbaa !20
  %79 = getelementptr inbounds nuw %struct.ARKodeARKStepMemRec, ptr %78, i32 0, i32 31
  %80 = load double, ptr %79, align 8, !tbaa !39
  %81 = fcmp olt double %80, 1.000000e+00
  br i1 %81, label %82, label %86

82:                                               ; preds = %77
  %83 = load ptr, ptr %15, align 8, !tbaa !20
  %84 = getelementptr inbounds nuw %struct.ARKodeARKStepMemRec, ptr %83, i32 0, i32 31
  %85 = load double, ptr %84, align 8, !tbaa !39
  br label %87

86:                                               ; preds = %77
  br label %87

87:                                               ; preds = %86, %82
  %88 = phi double [ %85, %82 ], [ 1.000000e+00, %86 ]
  %89 = load double, ptr %16, align 8, !tbaa !35
  %90 = fmul double %88, %89
  %91 = load double, ptr %11, align 8, !tbaa !35
  %92 = fdiv double %90, %91
  store double %92, ptr %17, align 8, !tbaa !35
  %93 = load double, ptr %17, align 8, !tbaa !35
  %94 = fcmp ole double %93, 1.000000e+00
  br i1 %94, label %95, label %96

95:                                               ; preds = %87
  store i32 0, ptr %7, align 4
  store i32 1, ptr %20, align 4
  br label %114

96:                                               ; preds = %87
  %97 = load i32, ptr %18, align 4, !tbaa !10
  %98 = icmp sge i32 %97, 1
  br i1 %98, label %99, label %110

99:                                               ; preds = %96
  %100 = load double, ptr %16, align 8, !tbaa !35
  %101 = load ptr, ptr %15, align 8, !tbaa !20
  %102 = getelementptr inbounds nuw %struct.ARKodeARKStepMemRec, ptr %101, i32 0, i32 30
  %103 = load double, ptr %102, align 8, !tbaa !41
  %104 = load ptr, ptr %15, align 8, !tbaa !20
  %105 = getelementptr inbounds nuw %struct.ARKodeARKStepMemRec, ptr %104, i32 0, i32 32
  %106 = load double, ptr %105, align 8, !tbaa !40
  %107 = fmul double %103, %106
  %108 = fcmp ogt double %100, %107
  br i1 %108, label %109, label %110

109:                                              ; preds = %99
  store i32 902, ptr %7, align 4
  store i32 1, ptr %20, align 4
  br label %114

110:                                              ; preds = %99, %96
  %111 = load double, ptr %16, align 8, !tbaa !35
  %112 = load ptr, ptr %15, align 8, !tbaa !20
  %113 = getelementptr inbounds nuw %struct.ARKodeARKStepMemRec, ptr %112, i32 0, i32 32
  store double %111, ptr %113, align 8, !tbaa !40
  store i32 901, ptr %7, align 4
  store i32 1, ptr %20, align 4
  br label %114

114:                                              ; preds = %110, %109, %95, %41, %32, %25
  call void @llvm.lifetime.end.p0(i64 4, ptr %19) #4
  call void @llvm.lifetime.end.p0(i64 4, ptr %18) #4
  call void @llvm.lifetime.end.p0(i64 8, ptr %17) #4
  call void @llvm.lifetime.end.p0(i64 8, ptr %16) #4
  call void @llvm.lifetime.end.p0(i64 8, ptr %15) #4
  call void @llvm.lifetime.end.p0(i64 8, ptr %14) #4
  %115 = load i32, ptr %7, align 4
  ret i32 %115
}