; Function Attrs: nounwind uwtable
define i32 @arkStep_NlsConvTest(ptr noundef %0, ptr readnone captures(none) %1, ptr noundef %2, double noundef %3, ptr noundef %4, ptr noundef %5) #0 {
  %7 = alloca ptr, align 8
  %8 = alloca ptr, align 8
  %9 = alloca i32, align 4
  call void @llvm.lifetime.start.p0(i64 8, ptr nonnull %7) #5
  call void @llvm.lifetime.start.p0(i64 8, ptr nonnull %8) #5
  call void @llvm.lifetime.start.p0(i64 4, ptr nonnull %9) #5
  %10 = call i32 @arkStep_AccessARKODEStepMem(ptr noundef %5, ptr noundef nonnull @__func__.arkStep_NlsConvTest, ptr noundef nonnull %7, ptr noundef nonnull %8) #5
  %.not = icmp eq i32 %10, 0
  br i1 %.not, label %11, label %49

11:                                               ; preds = %6
  %12 = load ptr, ptr %8, align 8, !tbaa !14
  %13 = getelementptr inbounds nuw i8, ptr %12, i64 20
  %14 = load i32, ptr %13, align 4, !tbaa !30
  %.not18 = icmp eq i32 %14, 0
  br i1 %.not18, label %15, label %49

15:                                               ; preds = %11
  %16 = call double @N_VWrmsNorm(ptr noundef %2, ptr noundef %4) #5
  %17 = call i32 @SUNNonlinSolGetCurIter(ptr noundef %0, ptr noundef nonnull %9) #5
  %.not19 = icmp eq i32 %17, 0
  br i1 %.not19, label %18, label %49

18:                                               ; preds = %15
  %19 = load i32, ptr %9, align 4, !tbaa !31
  %20 = icmp sgt i32 %19, 0
  %.pre = load ptr, ptr %8, align 8, !tbaa !14
  br i1 %20, label %21, label %.thread

21:                                               ; preds = %18
  %22 = getelementptr inbounds nuw i8, ptr %.pre, i64 192
  %23 = load double, ptr %22, align 8, !tbaa !32
  %24 = getelementptr inbounds nuw i8, ptr %.pre, i64 208
  %25 = load double, ptr %24, align 8, !tbaa !33
  %26 = fmul double %23, %25
  %27 = getelementptr inbounds nuw i8, ptr %.pre, i64 216
  %28 = load double, ptr %27, align 8, !tbaa !34
  %29 = fdiv double %16, %28
  %30 = fcmp ogt double %26, %29
  %. = select i1 %30, double %26, double %29
  store double %., ptr %24, align 8, !tbaa !33
  %31 = fcmp olt double %., 1.000000e+00
  %32 = select i1 %31, double %., double 1.000000e+00
  %33 = fmul double %16, %32
  %34 = fdiv double %33, %3
  %35 = fcmp ugt double %34, 1.000000e+00
  br i1 %35, label %41, label %49

.thread:                                          ; preds = %18
  %.phi.trans.insert = getelementptr inbounds nuw i8, ptr %.pre, i64 208
  %.pre20 = load double, ptr %.phi.trans.insert, align 8, !tbaa !33
  %36 = fcmp olt double %.pre20, 1.000000e+00
  %37 = select i1 %36, double %.pre20, double 1.000000e+00
  %38 = fmul double %16, %37
  %39 = fdiv double %38, %3
  %40 = fcmp ugt double %39, 1.000000e+00
  br i1 %40, label %.thread21, label %49

41:                                               ; preds = %21
  %42 = getelementptr inbounds nuw i8, ptr %.pre, i64 200
  %43 = load double, ptr %42, align 8, !tbaa !35
  %44 = getelementptr inbounds nuw i8, ptr %.pre, i64 216
  %45 = load double, ptr %44, align 8, !tbaa !34
  %46 = fmul double %43, %45
  %47 = fcmp ogt double %16, %46
  br i1 %47, label %49, label %.thread21

.thread21:                                        ; preds = %.thread, %41
  %48 = getelementptr inbounds nuw i8, ptr %.pre, i64 216
  store double %16, ptr %48, align 8, !tbaa !34
  br label %49

49:                                               ; preds = %.thread, %41, %21, %15, %11, %6, %.thread21
  %.0 = phi i32 [ 901, %.thread21 ], [ %10, %6 ], [ 0, %11 ], [ -21, %15 ], [ 0, %21 ], [ 902, %41 ], [ 0, %.thread ]
  call void @llvm.lifetime.end.p0(i64 4, ptr nonnull %9) #5
  call void @llvm.lifetime.end.p0(i64 8, ptr nonnull %8) #5
  call void @llvm.lifetime.end.p0(i64 8, ptr nonnull %7) #5
  ret i32 %.0
}